target datalayout = "e-m:e-p270:32:32-p271:32:32-p272:64:64-i64:64-i128:128-f80:128-n8:16:32:64-S128"
target triple = "x86_64-pc-linux-gnu"

%struct.fsck_gitmodules_data = type { ptr, ptr, i32 }

@.str.134 = private unnamed_addr constant [10 x i8] c"submodule\00", align 1
@.str.135 = private unnamed_addr constant [30 x i8] c"disallowed submodule name: %s\00", align 1
@.str.136 = private unnamed_addr constant [4 x i8] c"url\00", align 1
@.str.137 = private unnamed_addr constant [29 x i8] c"disallowed submodule url: %s\00", align 1
@.str.138 = private unnamed_addr constant [5 x i8] c"path\00", align 1
@.str.139 = private unnamed_addr constant [30 x i8] c"disallowed submodule path: %s\00", align 1
@.str.140 = private unnamed_addr constant [7 x i8] c"update\00", align 1
@.str.141 = private unnamed_addr constant [40 x i8] c"disallowed submodule update setting: %s\00", align 1

; Function Attrs: nounwind uwtable
define internal i32 @fsck_gitmodules_fn(ptr noundef %0, ptr noundef %1, ptr noundef %2, ptr noundef %3) #0 {
  %5 = alloca i32, align 4
  %6 = alloca ptr, align 8
  %7 = alloca ptr, align 8
  %8 = alloca ptr, align 8
  %9 = alloca ptr, align 8
  %10 = alloca ptr, align 8
  %11 = alloca ptr, align 8
  %12 = alloca ptr, align 8
  %13 = alloca i64, align 8
  %14 = alloca ptr, align 8
  %15 = alloca i32, align 4
  store ptr %0, ptr %6, align 8, !tbaa !9
  store ptr %1, ptr %7, align 8, !tbaa !9
  store ptr %2, ptr %8, align 8, !tbaa !149
  store ptr %3, ptr %9, align 8, !tbaa !33
  call void @llvm.lifetime.start.p0(i64 8, ptr %10) #11
  %16 = load ptr, ptr %9, align 8, !tbaa !33
  store ptr %16, ptr %10, align 8, !tbaa !153
  call void @llvm.lifetime.start.p0(i64 8, ptr %11) #11
  call void @llvm.lifetime.start.p0(i64 8, ptr %12) #11
  call void @llvm.lifetime.start.p0(i64 8, ptr %13) #11
  call void @llvm.lifetime.start.p0(i64 8, ptr %14) #11
  %17 = load ptr, ptr %6, align 8, !tbaa !9
  %18 = call i32 @parse_config_key(ptr noundef %17, ptr noundef @.str.134, ptr noundef %11, ptr noundef %13, ptr noundef %12)
  %19 = icmp slt i32 %18, 0
  br i1 %19, label %23, label %20

20:                                               ; preds = %4
  %21 = load ptr, ptr %11, align 8, !tbaa !9
  %22 = icmp ne ptr %21, null
  br i1 %22, label %24, label %23

23:                                               ; preds = %20, %4
  store i32 0, ptr %5, align 4
  store i32 1, ptr %15, align 4
  br label %118

24:                                               ; preds = %20
  %25 = load ptr, ptr %11, align 8, !tbaa !9
  %26 = load i64, ptr %13, align 8, !tbaa !35
  %27 = call ptr @xmemdupz(ptr noundef %25, i64 noundef %26)
  store ptr %27, ptr %14, align 8, !tbaa !9
  %28 = load ptr, ptr %14, align 8, !tbaa !9
  %29 = call i32 @check_submodule_name(ptr noundef %28)
  %30 = icmp slt i32 %29, 0
  br i1 %30, label %31, label %44

31:                                               ; preds = %24
  %32 = load ptr, ptr %10, align 8, !tbaa !153
  %33 = getelementptr inbounds nuw %struct.fsck_gitmodules_data, ptr %32, i32 0, i32 1
  %34 = load ptr, ptr %33, align 8, !tbaa !126
  %35 = load ptr, ptr %10, align 8, !tbaa !153
  %36 = getelementptr inbounds nuw %struct.fsck_gitmodules_data, ptr %35, i32 0, i32 0
  %37 = load ptr, ptr %36, align 8, !tbaa !124
  %38 = load ptr, ptr %14, align 8, !tbaa !9
  %39 = call i32 (ptr, ptr, i32, i32, ptr, ...) @report(ptr noundef %34, ptr noundef %37, i32 noundef 3, i32 noundef 36, ptr noundef @.str.135, ptr noundef %38)
  %40 = load ptr, ptr %10, align 8, !tbaa !153
  %41 = getelementptr inbounds nuw %struct.fsck_gitmodules_data, ptr %40, i32 0, i32 2
  %42 = load i32, ptr %41, align 8, !tbaa !127
  %43 = or i32 %42, %39
  store i32 %43, ptr %41, align 8, !tbaa !127
  br label %44

44:                                               ; preds = %31, %24
  %45 = load ptr, ptr %12, align 8, !tbaa !9
  %46 = call i32 @strcmp(ptr noundef %45, ptr noundef @.str.136) #12
  %47 = icmp ne i32 %46, 0
  br i1 %47, label %68, label %48

48:                                               ; preds = %44
  %49 = load ptr, ptr %7, align 8, !tbaa !9
  %50 = icmp ne ptr %49, null
  br i1 %50, label %51, label %68

51:                                               ; preds = %48
  %52 = load ptr, ptr %7, align 8, !tbaa !9
  %53 = call i32 @check_submodule_url(ptr noundef %52)
  %54 = icmp slt i32 %53, 0
  br i1 %54, label %55, label %68

55:                                               ; preds = %51
  %56 = load ptr, ptr %10, align 8, !tbaa !153
  %57 = getelementptr inbounds nuw %struct.fsck_gitmodules_data, ptr %56, i32 0, i32 1
  %58 = load ptr, ptr %57, align 8, !tbaa !126
  %59 = load ptr, ptr %10, align 8, !tbaa !153
  %60 = getelementptr inbounds nuw %struct.fsck_gitmodules_data, ptr %59, i32 0, i32 0
  %61 = load ptr, ptr %60, align 8, !tbaa !124
  %62 = load ptr, ptr %7, align 8, !tbaa !9
  %63 = call i32 (ptr, ptr, i32, i32, ptr, ...) @report(ptr noundef %58, ptr noundef %61, i32 noundef 3, i32 noundef 38, ptr noundef @.str.137, ptr noundef %62)
  %64 = load ptr, ptr %10, align 8, !tbaa !153
  %65 = getelementptr inbounds nuw %struct.fsck_gitmodules_data, ptr %64, i32 0, i32 2
  %66 = load i32, ptr %65, align 8, !tbaa !127
  %67 = or i32 %66, %63
  store i32 %67, ptr %65, align 8, !tbaa !127
  br label %68

68:                                               ; preds = %55, %51, %48, %44
  %69 = load ptr, ptr %12, align 8, !tbaa !9
  %70 = call i32 @strcmp(ptr noundef %69, ptr noundef @.str.138) #12
  %71 = icmp ne i32 %70, 0
  br i1 %71, label %92, label %72

72:                                               ; preds = %68
  %73 = load ptr, ptr %7, align 8, !tbaa !9
  %74 = icmp ne ptr %73, null
  br i1 %74, label %75, label %92

75:                                               ; preds = %72
  %76 = load ptr, ptr %7, align 8, !tbaa !9
  %77 = call i32 @looks_like_command_line_option(ptr noundef %76)
  %78 = icmp ne i32 %77, 0
  br i1 %78, label %79, label %92

79:                                               ; preds = %75
  %80 = load ptr, ptr %10, align 8, !tbaa !153
  %81 = getelementptr inbounds nuw %struct.fsck_gitmodules_data, ptr %80, i32 0, i32 1
  %82 = load ptr, ptr %81, align 8, !tbaa !126
  %83 = load ptr, ptr %10, align 8, !tbaa !153
  %84 = getelementptr inbounds nuw %struct.fsck_gitmodules_data, ptr %83, i32 0, i32 0
  %85 = load ptr, ptr %84, align 8, !tbaa !124
  %86 = load ptr, ptr %7, align 8, !tbaa !9
  %87 = call i32 (ptr, ptr, i32, i32, ptr, ...) @report(ptr noundef %82, ptr noundef %85, i32 noundef 3, i32 noundef 39, ptr noundef @.str.139, ptr noundef %86)
  %88 = load ptr, ptr %10, align 8, !tbaa !153
  %89 = getelementptr inbounds nuw %struct.fsck_gitmodules_data, ptr %88, i32 0, i32 2
  %90 = load i32, ptr %89, align 8, !tbaa !127
  %91 = or i32 %90, %87
  store i32 %91, ptr %89, align 8, !tbaa !127
  br label %92

92:                                               ; preds = %79, %75, %72, %68
  %93 = load ptr, ptr %12, align 8, !tbaa !9
  %94 = call i32 @strcmp(ptr noundef %93, ptr noundef @.str.140) #12
  %95 = icmp ne i32 %94, 0
  br i1 %95, label %116, label %96

96:                                               ; preds = %92
  %97 = load ptr, ptr %7, align 8, !tbaa !9
  %98 = icmp ne ptr %97, null
  br i1 %98, label %99, label %116

99:                                               ; preds = %96
  %100 = load ptr, ptr %7, align 8, !tbaa !9
  %101 = call i32 @parse_submodule_update_type(ptr noundef %100)
  %102 = icmp eq i32 %101, 5
  br i1 %102, label %103, label %116

103:                                              ; preds = %99
  %104 = load ptr, ptr %10, align 8, !tbaa !153
  %105 = getelementptr inbounds nuw %struct.fsck_gitmodules_data, ptr %104, i32 0, i32 1
  %106 = load ptr, ptr %105, align 8, !tbaa !126
  %107 = load ptr, ptr %10, align 8, !tbaa !153
  %108 = getelementptr inbounds nuw %struct.fsck_gitmodules_data, ptr %107, i32 0, i32 0
  %109 = load ptr, ptr %108, align 8, !tbaa !124
  %110 = load ptr, ptr %7, align 8, !tbaa !9
  %111 = call i32 (ptr, ptr, i32, i32, ptr, ...) @report(ptr noundef %106, ptr noundef %109, i32 noundef 3, i32 noundef 40, ptr noundef @.str.141, ptr noundef %110)
  %112 = load ptr, ptr %10, align 8, !tbaa !153
  %113 = getelementptr inbounds nuw %struct.fsck_gitmodules_data, ptr %112, i32 0, i32 2
  %114 = load i32, ptr %113, align 8, !tbaa !127
  %115 = or i32 %114, %111
  store i32 %115, ptr %113, align 8, !tbaa !127
  br label %116

116:                                              ; preds = %103, %99, %96, %92
  %117 = load ptr, ptr %14, align 8, !tbaa !9
  call void @free(ptr noundef %117) #11
  store i32 0, ptr %5, align 4
  store i32 1, ptr %15, align 4
  br label %118

118:                                              ; preds = %116, %23
  call void @llvm.lifetime.end.p0(i64 8, ptr %14) #11
  call void @llvm.lifetime.end.p0(i64 8, ptr %13) #11
  call void @llvm.lifetime.end.p0(i64 8, ptr %12) #11
  call void @llvm.lifetime.end.p0(i64 8, ptr %11) #11
  call void @llvm.lifetime.end.p0(i64 8, ptr %10) #11
  %119 = load i32, ptr %5, align 4
  ret i32 %119
}