; Function Attrs: nounwind uwtable
define internal noundef i32 @fsck_gitmodules_fn(ptr noundef %0, ptr noundef %1, ptr readnone captures(none) %2, ptr noundef captures(none) %3) #0 {
  %5 = alloca ptr, align 8
  %6 = alloca ptr, align 8
  %7 = alloca i64, align 8
  call void @llvm.lifetime.start.p0(i64 8, ptr nonnull %5) #16
  call void @llvm.lifetime.start.p0(i64 8, ptr nonnull %6) #16
  call void @llvm.lifetime.start.p0(i64 8, ptr nonnull %7) #16
  %8 = call i32 @parse_config_key(ptr noundef %0, ptr noundef nonnull @.str.134, ptr noundef nonnull %5, ptr noundef nonnull %7, ptr noundef nonnull %6) #16
  %9 = icmp sgt i32 %8, -1
  %10 = load ptr, ptr %5, align 8
  %11 = icmp ne ptr %10, null
  %or.cond = select i1 %9, i1 %11, i1 false
  br i1 %or.cond, label %12, label %71

12:                                               ; preds = %4
  %13 = load i64, ptr %7, align 8, !tbaa !109
  %14 = call ptr @xmemdupz(ptr noundef nonnull %10, i64 noundef %13) #16
  %15 = call i32 @check_submodule_name(ptr noundef %14) #16
  %16 = icmp slt i32 %15, 0
  br i1 %16, label %17, label %25

17:                                               ; preds = %12
  %18 = getelementptr inbounds nuw i8, ptr %3, i64 8
  %19 = load ptr, ptr %18, align 8, !tbaa !115
  %20 = load ptr, ptr %3, align 8, !tbaa !112
  %21 = call i32 (ptr, ptr, i32, i32, ptr, ...) @report(ptr noundef %19, ptr noundef %20, i32 noundef 3, i32 noundef 36, ptr noundef nonnull @.str.135, ptr noundef %14)
  %22 = getelementptr inbounds nuw i8, ptr %3, i64 16
  %23 = load i32, ptr %22, align 8, !tbaa !116
  %24 = or i32 %23, %21
  store i32 %24, ptr %22, align 8, !tbaa !116
  br label %25

25:                                               ; preds = %17, %12
  %26 = load ptr, ptr %6, align 8, !tbaa !98
  %27 = call i32 @strcmp(ptr noundef nonnull dereferenceable(1) %26, ptr noundef nonnull dereferenceable(4) @.str.136) #17
  %28 = icmp eq i32 %27, 0
  %29 = icmp ne ptr %1, null
  %or.cond3 = and i1 %29, %28
  br i1 %or.cond3, label %30, label %41

30:                                               ; preds = %25
  %31 = call i32 @check_submodule_url(ptr noundef nonnull %1) #16
  %32 = icmp slt i32 %31, 0
  br i1 %32, label %33, label %41

33:                                               ; preds = %30
  %34 = getelementptr inbounds nuw i8, ptr %3, i64 8
  %35 = load ptr, ptr %34, align 8, !tbaa !115
  %36 = load ptr, ptr %3, align 8, !tbaa !112
  %37 = call i32 (ptr, ptr, i32, i32, ptr, ...) @report(ptr noundef %35, ptr noundef %36, i32 noundef 3, i32 noundef 38, ptr noundef nonnull @.str.137, ptr noundef nonnull %1)
  %38 = getelementptr inbounds nuw i8, ptr %3, i64 16
  %39 = load i32, ptr %38, align 8, !tbaa !116
  %40 = or i32 %39, %37
  store i32 %40, ptr %38, align 8, !tbaa !116
  br label %41

41:                                               ; preds = %33, %30, %25
  %42 = load ptr, ptr %6, align 8, !tbaa !98
  %43 = call i32 @strcmp(ptr noundef nonnull dereferenceable(1) %42, ptr noundef nonnull dereferenceable(5) @.str.138) #17
  %44 = icmp eq i32 %43, 0
  %or.cond5 = and i1 %29, %44
  br i1 %or.cond5, label %45, label %55

45:                                               ; preds = %41
  %46 = call i32 @looks_like_command_line_option(ptr noundef nonnull %1) #16
  %.not = icmp eq i32 %46, 0
  br i1 %.not, label %55, label %47

47:                                               ; preds = %45
  %48 = getelementptr inbounds nuw i8, ptr %3, i64 8
  %49 = load ptr, ptr %48, align 8, !tbaa !115
  %50 = load ptr, ptr %3, align 8, !tbaa !112
  %51 = call i32 (ptr, ptr, i32, i32, ptr, ...) @report(ptr noundef %49, ptr noundef %50, i32 noundef 3, i32 noundef 39, ptr noundef nonnull @.str.139, ptr noundef nonnull %1)
  %52 = getelementptr inbounds nuw i8, ptr %3, i64 16
  %53 = load i32, ptr %52, align 8, !tbaa !116
  %54 = or i32 %53, %51
  store i32 %54, ptr %52, align 8, !tbaa !116
  br label %55

55:                                               ; preds = %47, %45, %41
  %56 = load ptr, ptr %6, align 8, !tbaa !98
  %57 = call i32 @strcmp(ptr noundef nonnull dereferenceable(1) %56, ptr noundef nonnull dereferenceable(7) @.str.140) #17
  %58 = icmp eq i32 %57, 0
  %or.cond7 = and i1 %29, %58
  br i1 %or.cond7, label %59, label %70

59:                                               ; preds = %55
  %60 = call i32 @parse_submodule_update_type(ptr noundef nonnull %1) #16
  %61 = icmp eq i32 %60, 5
  br i1 %61, label %62, label %70

62:                                               ; preds = %59
  %63 = getelementptr inbounds nuw i8, ptr %3, i64 8
  %64 = load ptr, ptr %63, align 8, !tbaa !115
  %65 = load ptr, ptr %3, align 8, !tbaa !112
  %66 = call i32 (ptr, ptr, i32, i32, ptr, ...) @report(ptr noundef %64, ptr noundef %65, i32 noundef 3, i32 noundef 40, ptr noundef nonnull @.str.141, ptr noundef nonnull %1)
  %67 = getelementptr inbounds nuw i8, ptr %3, i64 16
  %68 = load i32, ptr %67, align 8, !tbaa !116
  %69 = or i32 %68, %66
  store i32 %69, ptr %67, align 8, !tbaa !116
  br label %70

70:                                               ; preds = %62, %59, %55
  call void @free(ptr noundef %14) #16
  br label %71

71:                                               ; preds = %4, %70
  call void @llvm.lifetime.end.p0(i64 8, ptr nonnull %7) #16
  call void @llvm.lifetime.end.p0(i64 8, ptr nonnull %6) #16
  call void @llvm.lifetime.end.p0(i64 8, ptr nonnull %5) #16
  ret i32 0
}